; Function Attrs: nounwind uwtable
define dso_local noundef i32 @luaopen_math(ptr noundef %0) local_unnamed_addr #0 {
  tail call void @luaL_checkversion_(ptr noundef %0, double noundef 5.050000e+02, i64 noundef 136) #6
  tail call void @lua_createtable(ptr noundef %0, i32 noundef 0, i32 noundef 27) #6
  tail call void @luaL_setfuncs(ptr noundef %0, ptr noundef nonnull @mathlib, i32 noundef 0) #6
  tail call void @lua_pushnumber(ptr noundef %0, double noundef 0x400921FB54442D18) #6
  tail call void @lua_setfield(ptr noundef %0, i32 noundef -2, ptr noundef nonnull @.str) #6
  tail call void @lua_pushnumber(ptr noundef %0, double noundef 0x7FF0000000000000) #6
  tail call void @lua_setfield(ptr noundef %0, i32 noundef -2, ptr noundef nonnull @.str.1) #6
  tail call void @lua_pushinteger(ptr noundef %0, i64 noundef 9223372036854775807) #6
  tail call void @lua_setfield(ptr noundef %0, i32 noundef -2, ptr noundef nonnull @.str.2) #6
  tail call void @lua_pushinteger(ptr noundef %0, i64 noundef -9223372036854775808) #6
  tail call void @lua_setfield(ptr noundef %0, i32 noundef -2, ptr noundef nonnull @.str.3) #6
  %2 = tail call ptr @lua_newuserdatauv(ptr noundef %0, i64 noundef 32, i32 noundef 0) #6
  %3 = tail call i32 @luaL_makeseed(ptr noundef %0) #6
  %4 = zext i32 %3 to i64
  br label %5

5:                                                ; preds = %5, %1
  %.018.i.i = phi i32 [ 0, %1 ], [ %17, %5 ]
  %6 = phi i64 [ %4, %1 ], [ %12, %5 ]
  %7 = phi i64 [ 255, %1 ], [ %13, %5 ]
  %8 = phi i64 [ 0, %1 ], [ %15, %5 ]
  %9 = phi i64 [ 0, %1 ], [ %16, %5 ]
  %10 = xor i64 %8, %6
  %11 = xor i64 %9, %7
  %12 = xor i64 %11, %6
  %13 = xor i64 %10, %7
  %14 = shl i64 %7, 17
  %15 = xor i64 %10, %14
  %16 = tail call i64 @llvm.fshl.i64(i64 %11, i64 %11, i64 45)
  %17 = add nuw nsw i32 %.018.i.i, 1
  %exitcond.not.i.i = icmp eq i32 %17, 16
  br i1 %exitcond.not.i.i, label %setrandfunc.exit, label %5

setrandfunc.exit:                                 ; preds = %5
  %18 = getelementptr inbounds nuw i8, ptr %2, i64 24
  %19 = getelementptr inbounds nuw i8, ptr %2, i64 16
  %20 = getelementptr inbounds nuw i8, ptr %2, i64 8
  store i64 %12, ptr %2, align 8, !tbaa !4
  store i64 %13, ptr %20, align 8, !tbaa !4
  store i64 %15, ptr %19, align 8, !tbaa !4
  store i64 %16, ptr %18, align 8, !tbaa !4
  tail call void @lua_pushinteger(ptr noundef %0, i64 noundef %4) #6
  tail call void @lua_pushinteger(ptr noundef %0, i64 noundef 0) #6
  tail call void @lua_settop(ptr noundef %0, i32 noundef -3) #6
  tail call void @luaL_setfuncs(ptr noundef %0, ptr noundef nonnull @randfuncs, i32 noundef 1) #6
  ret i32 1
}